target datalayout = "e-m:e-p270:32:32-p271:32:32-p272:64:64-i64:64-i128:128-f80:128-n8:16:32:64-S128"
target triple = "x86_64-pc-linux-gnu"

%"class.cv::Size_" = type { i32, i32 }
%"class.cv::Point_.14" = type { i32, i32 }

; Function Attrs: mustprogress nounwind uwtable
define hidden void @_ZN2cv8ximgproc20FastLineDetectorImpl16pointInboardTestENS_5Size_IiEERNS_6Point_IiEE(ptr noundef nonnull align 8 dereferenceable(45) %0, i64 %1, ptr noundef nonnull align 4 dereferenceable(8) %2) #9 align 2 {
  %4 = alloca %"class.cv::Size_", align 4
  %5 = alloca ptr, align 8
  %6 = alloca ptr, align 8
  store i64 %1, ptr %4, align 4
  store ptr %0, ptr %5, align 8, !tbaa !26
  store ptr %2, ptr %6, align 8, !tbaa !129
  %7 = load ptr, ptr %6, align 8, !tbaa !129
  %8 = getelementptr inbounds nuw %"class.cv::Point_.14", ptr %7, i32 0, i32 0
  %9 = load i32, ptr %8, align 4, !tbaa !86
  %10 = icmp sle i32 %9, 5
  br i1 %10, label %11, label %12

11:                                               ; preds = %3
  br label %30

12:                                               ; preds = %3
  %13 = load ptr, ptr %6, align 8, !tbaa !129
  %14 = getelementptr inbounds nuw %"class.cv::Point_.14", ptr %13, i32 0, i32 0
  %15 = load i32, ptr %14, align 4, !tbaa !86
  %16 = getelementptr inbounds nuw %"class.cv::Size_", ptr %4, i32 0, i32 0
  %17 = load i32, ptr %16, align 4, !tbaa !131
  %18 = sub nsw i32 %17, 5
  %19 = icmp sge i32 %15, %18
  br i1 %19, label %20, label %24

20:                                               ; preds = %12
  %21 = getelementptr inbounds nuw %"class.cv::Size_", ptr %4, i32 0, i32 0
  %22 = load i32, ptr %21, align 4, !tbaa !131
  %23 = sub nsw i32 %22, 5
  br label %28

24:                                               ; preds = %12
  %25 = load ptr, ptr %6, align 8, !tbaa !129
  %26 = getelementptr inbounds nuw %"class.cv::Point_.14", ptr %25, i32 0, i32 0
  %27 = load i32, ptr %26, align 4, !tbaa !86
  br label %28

28:                                               ; preds = %24, %20
  %29 = phi i32 [ %23, %20 ], [ %27, %24 ]
  br label %30

30:                                               ; preds = %28, %11
  %31 = phi i32 [ 5, %11 ], [ %29, %28 ]
  %32 = load ptr, ptr %6, align 8, !tbaa !129
  %33 = getelementptr inbounds nuw %"class.cv::Point_.14", ptr %32, i32 0, i32 0
  store i32 %31, ptr %33, align 4, !tbaa !86
  %34 = load ptr, ptr %6, align 8, !tbaa !129
  %35 = getelementptr inbounds nuw %"class.cv::Point_.14", ptr %34, i32 0, i32 1
  %36 = load i32, ptr %35, align 4, !tbaa !84
  %37 = icmp sle i32 %36, 5
  br i1 %37, label %38, label %39

38:                                               ; preds = %30
  br label %57

39:                                               ; preds = %30
  %40 = load ptr, ptr %6, align 8, !tbaa !129
  %41 = getelementptr inbounds nuw %"class.cv::Point_.14", ptr %40, i32 0, i32 1
  %42 = load i32, ptr %41, align 4, !tbaa !84
  %43 = getelementptr inbounds nuw %"class.cv::Size_", ptr %4, i32 0, i32 1
  %44 = load i32, ptr %43, align 4, !tbaa !132
  %45 = sub nsw i32 %44, 5
  %46 = icmp sge i32 %42, %45
  br i1 %46, label %47, label %51

47:                                               ; preds = %39
  %48 = getelementptr inbounds nuw %"class.cv::Size_", ptr %4, i32 0, i32 1
  %49 = load i32, ptr %48, align 4, !tbaa !132
  %50 = sub nsw i32 %49, 5
  br label %55

51:                                               ; preds = %39
  %52 = load ptr, ptr %6, align 8, !tbaa !129
  %53 = getelementptr inbounds nuw %"class.cv::Point_.14", ptr %52, i32 0, i32 1
  %54 = load i32, ptr %53, align 4, !tbaa !84
  br label %55

55:                                               ; preds = %51, %47
  %56 = phi i32 [ %50, %47 ], [ %54, %51 ]
  br label %57

57:                                               ; preds = %55, %38
  %58 = phi i32 [ 5, %38 ], [ %56, %55 ]
  %59 = load ptr, ptr %6, align 8, !tbaa !129
  %60 = getelementptr inbounds nuw %"class.cv::Point_.14", ptr %59, i32 0, i32 1
  store i32 %58, ptr %60, align 4, !tbaa !84
  ret void
}