; Function Attrs: mustprogress nofree norecurse nosync nounwind willreturn memory(argmem: readwrite) uwtable
define hidden void @_ZN2cv8ximgproc20FastLineDetectorImpl16pointInboardTestENS_5Size_IiEERNS_6Point_IiEE(ptr noundef nonnull readnone align 8 captures(none) dereferenceable(45) %0, i64 %1, ptr noundef nonnull align 4 captures(none) dereferenceable(8) %2) local_unnamed_addr #11 align 2 {
  %.sroa.3.0.extract.shift = lshr i64 %1, 32
  %.sroa.3.0.extract.trunc = trunc nuw i64 %.sroa.3.0.extract.shift to i32
  %4 = load i32, ptr %2, align 4, !tbaa !138
  %.sroa.0.0.extract.trunc = trunc i64 %1 to i32
  %5 = add nsw i32 %.sroa.0.0.extract.trunc, -5
  %. = tail call i32 @llvm.smin.i32(i32 %4, i32 %5)
  %.inv = icmp sgt i32 %4, 5
  %6 = select i1 %.inv, i32 %., i32 5
  store i32 %6, ptr %2, align 4, !tbaa !138
  %7 = getelementptr inbounds nuw i8, ptr %2, i64 4
  %8 = load i32, ptr %7, align 4, !tbaa !140
  %9 = add nsw i32 %.sroa.3.0.extract.trunc, -5
  %.14 = tail call i32 @llvm.smin.i32(i32 %8, i32 %9)
  %.inv15 = icmp sgt i32 %8, 5
  %10 = select i1 %.inv15, i32 %.14, i32 5
  store i32 %10, ptr %7, align 4, !tbaa !140
  ret void
}